; Function Attrs: mustprogress nounwind uwtable
define hidden void @_ZN19OpenColorIO_v2_5dev8Platform6SetenvEPKcRKNSt7__cxx1112basic_stringIcSt11char_traitsIcESaIcEEE(ptr noundef %0, ptr noundef nonnull readonly align 8 captures(none) dereferenceable(32) %1) local_unnamed_addr #2 personality ptr @__gxx_personality_v0 {
  %.not = icmp eq ptr %0, null
  br i1 %.not, label %8, label %3

3:                                                ; preds = %2
  %4 = load i8, ptr %0, align 1, !tbaa !13
  %.not4 = icmp eq i8 %4, 0
  br i1 %.not4, label %8, label %5

5:                                                ; preds = %3
  %6 = load ptr, ptr %1, align 8, !tbaa !14
  %7 = tail call i32 @setenv(ptr noundef nonnull %0, ptr noundef %6, i32 noundef 1) #20
  br label %8

8:                                                ; preds = %2, %3, %5
  ret void
}